; Function Attrs: mustprogress uwtable
define noundef zeroext i1 @_ZNK32pxrInternal_v0_24__pxrReserved__11Usd_ClipSet21_ClipContributesValueERKSt10shared_ptrINS_8Usd_ClipEERKNS_7SdfPathE(ptr noundef nonnull align 8 dereferenceable(121) %0, ptr noundef nonnull readonly align 8 captures(none) dereferenceable(16) %1, ptr noundef nonnull align 4 dereferenceable(8) %2) local_unnamed_addr #0 align 2 {
  %4 = getelementptr inbounds nuw i8, ptr %0, i64 120
  %5 = load i8, ptr %4, align 8
  %6 = trunc i8 %5 to i1
  br i1 %6, label %7, label %18

7:                                                ; preds = %3
  %8 = getelementptr inbounds nuw i8, ptr %0, i64 80
  %9 = load ptr, ptr %8, align 8
  %10 = load ptr, ptr %1, align 8
  %11 = getelementptr inbounds nuw i8, ptr %10, i64 112
  %12 = load double, ptr %11, align 8
  %13 = tail call noundef zeroext i1 @_ZNK32pxrInternal_v0_24__pxrReserved__8Usd_Clip9IsBlockedERKNS_7SdfPathEd(ptr noundef nonnull align 8 dereferenceable(208) %9, ptr noundef nonnull align 4 dereferenceable(8) %2, double noundef %12)
  br i1 %13, label %.critedge, label %14

14:                                               ; preds = %7
  %15 = load ptr, ptr %1, align 8
  %16 = tail call noundef zeroext i1 @_ZNK32pxrInternal_v0_24__pxrReserved__8Usd_Clip22HasAuthoredTimeSamplesERKNS_7SdfPathE(ptr noundef nonnull align 8 dereferenceable(208) %15, ptr noundef nonnull align 4 dereferenceable(8) %2)
  br i1 %16, label %18, label %.critedge

.critedge:                                        ; preds = %7, %14
  %17 = tail call noundef i32 @_ZN32pxrInternal_v0_24__pxrReserved__14Usd_HasDefaultIiSt10shared_ptrINS_8Usd_ClipEEEENS_22Usd_DefaultValueResultERKT0_RKNS_7SdfPathEPT_(ptr noundef nonnull align 8 dereferenceable(16) %8, ptr noundef nonnull align 4 dereferenceable(8) %2, ptr noundef null)
  %.not = icmp ne i32 %17, 0
  br label %18

18:                                               ; preds = %.critedge, %14, %3
  %.0 = phi i1 [ true, %3 ], [ true, %14 ], [ %.not, %.critedge ]
  ret i1 %.0
}